target datalayout = "e-m:e-p270:32:32-p271:32:32-p272:64:64-i64:64-i128:128-f80:128-n8:16:32:64-S128"
target triple = "x86_64-pc-linux-gnu"

%"class.llvm::BasicBlockEdge" = type { ptr, ptr }

; Function Attrs: mustprogress nounwind uwtable
define linkonce_odr hidden noundef ptr @_ZNK4llvm14BasicBlockEdge6getEndEv(ptr noundef nonnull align 8 dereferenceable(16) %0) #1 comdat align 2 {
  %2 = alloca ptr, align 8
  store ptr %0, ptr %2, align 8
  %3 = load ptr, ptr %2, align 8
  %4 = getelementptr inbounds nuw %"class.llvm::BasicBlockEdge", ptr %3, i32 0, i32 1
  %5 = load ptr, ptr %4, align 8
  ret ptr %5
}

; Function Attrs: mustprogress nounwind uwtable
define linkonce_odr hidden noundef ptr @_ZNK4llvm14BasicBlockEdge8getStartEv(ptr noundef nonnull align 8 dereferenceable(16) %0) #1 comdat align 2 {
  %2 = alloca ptr, align 8
  store ptr %0, ptr %2, align 8
  %3 = load ptr, ptr %2, align 8
  %4 = getelementptr inbounds nuw %"class.llvm::BasicBlockEdge", ptr %3, i32 0, i32 0
  %5 = load ptr, ptr %4, align 8
  ret ptr %5
}

; Function Attrs: mustprogress nounwind uwtable
define dso_local noundef zeroext i1 @_ZNK4llvm13DominatorTree9dominatesERKNS_14BasicBlockEdgeES3_(ptr noundef nonnull align 8 dereferenceable(124) %0, ptr noundef nonnull align 8 dereferenceable(16) %1, ptr noundef nonnull align 8 dereferenceable(16) %2) #1 align 2 {
  %4 = alloca i1, align 1
  %5 = alloca ptr, align 8
  %6 = alloca ptr, align 8
  %7 = alloca ptr, align 8
  store ptr %0, ptr %5, align 8
  store ptr %1, ptr %6, align 8
  store ptr %2, ptr %7, align 8
  %8 = load ptr, ptr %5, align 8
  %9 = load ptr, ptr %6, align 8
  %10 = call noundef ptr @_ZNK4llvm14BasicBlockEdge8getStartEv(ptr noundef nonnull align 8 dereferenceable(16) %9)
  %11 = load ptr, ptr %7, align 8
  %12 = call noundef ptr @_ZNK4llvm14BasicBlockEdge8getStartEv(ptr noundef nonnull align 8 dereferenceable(16) %11)
  %13 = icmp eq ptr %10, %12
  br i1 %13, label %14, label %21

14:                                               ; preds = %3
  %15 = load ptr, ptr %6, align 8
  %16 = call noundef ptr @_ZNK4llvm14BasicBlockEdge6getEndEv(ptr noundef nonnull align 8 dereferenceable(16) %15)
  %17 = load ptr, ptr %7, align 8
  %18 = call noundef ptr @_ZNK4llvm14BasicBlockEdge6getEndEv(ptr noundef nonnull align 8 dereferenceable(16) %17)
  %19 = icmp eq ptr %16, %18
  br i1 %19, label %20, label %21

20:                                               ; preds = %14
  store i1 true, ptr %4, align 1
  br label %26

21:                                               ; preds = %14, %3
  %22 = load ptr, ptr %6, align 8
  %23 = load ptr, ptr %7, align 8
  %24 = call noundef ptr @_ZNK4llvm14BasicBlockEdge8getStartEv(ptr noundef nonnull align 8 dereferenceable(16) %23)
  %25 = call noundef zeroext i1 @_ZNK4llvm13DominatorTree9dominatesERKNS_14BasicBlockEdgeEPKNS_10BasicBlockE(ptr noundef nonnull align 8 dereferenceable(124) %8, ptr noundef nonnull align 8 dereferenceable(16) %22, ptr noundef %24)
  store i1 %25, ptr %4, align 1
  br label %26

26:                                               ; preds = %21, %20
  %27 = load i1, ptr %4, align 1
  ret i1 %27
}