; Function Attrs: mustprogress nounwind uwtable
define dso_local noundef zeroext i1 @_ZNK4llvm13DominatorTree9dominatesERKNS_14BasicBlockEdgeES3_(ptr noundef nonnull align 8 dereferenceable(124) %0, ptr nocapture noundef nonnull readonly align 8 dereferenceable(16) %1, ptr nocapture noundef nonnull readonly align 8 dereferenceable(16) %2) local_unnamed_addr #0 align 2 {
  %4 = load ptr, ptr %1, align 8
  %5 = load ptr, ptr %2, align 8
  %6 = icmp eq ptr %4, %5
  br i1 %6, label %7, label %13

7:                                                ; preds = %3
  %8 = getelementptr inbounds nuw i8, ptr %1, i64 8
  %9 = load ptr, ptr %8, align 8
  %10 = getelementptr inbounds nuw i8, ptr %2, i64 8
  %11 = load ptr, ptr %10, align 8
  %12 = icmp eq ptr %9, %11
  br i1 %12, label %15, label %13

13:                                               ; preds = %7, %3
  %14 = tail call noundef zeroext i1 @_ZNK4llvm13DominatorTree9dominatesERKNS_14BasicBlockEdgeEPKNS_10BasicBlockE(ptr noundef nonnull align 8 dereferenceable(124) %0, ptr noundef nonnull align 8 dereferenceable(16) %1, ptr noundef %5)
  br label %15

15:                                               ; preds = %7, %13
  %.0 = phi i1 [ %14, %13 ], [ true, %7 ]
  ret i1 %.0
}